; Function Attrs: nounwind uwtable
define internal void @structseq_dealloc(ptr noundef %0) #0 {
  tail call void @PyObject_GC_UnTrack(ptr noundef %0) #9
  %2 = getelementptr i8, ptr %0, i64 8
  %.val = load ptr, ptr %2, align 8, !tbaa !22
  %3 = getelementptr i8, ptr %0, i64 16
  %.val11 = load i64, ptr %3, align 8, !tbaa !21
  %4 = getelementptr i8, ptr %.val, i64 32
  %.val10.val = load i64, ptr %4, align 8, !tbaa !41
  %5 = add i64 %.val10.val, -24
  %6 = lshr i64 %5, 3
  %7 = add i64 %6, %.val11
  %8 = icmp sgt i64 %7, 0
  br i1 %8, label %.lr.ph, label %._crit_edge

.lr.ph:                                           ; preds = %1
  %9 = getelementptr inbounds nuw i8, ptr %0, i64 24
  br label %10

10:                                               ; preds = %.lr.ph, %Py_XDECREF.exit
  %.014 = phi i64 [ 0, %.lr.ph ], [ %19, %Py_XDECREF.exit ]
  %11 = getelementptr [1 x ptr], ptr %9, i64 0, i64 %.014
  %12 = load ptr, ptr %11, align 8, !tbaa !4
  %.not.i13 = icmp eq ptr %12, null
  br i1 %.not.i13, label %Py_XDECREF.exit, label %13

13:                                               ; preds = %10
  %14 = load i32, ptr %12, align 8, !tbaa !52
  %.not.i.i = icmp sgt i32 %14, -1
  br i1 %.not.i.i, label %15, label %Py_XDECREF.exit

15:                                               ; preds = %13
  %16 = add nsw i32 %14, -1
  store i32 %16, ptr %12, align 8, !tbaa !52
  %17 = icmp eq i32 %16, 0
  br i1 %17, label %18, label %Py_XDECREF.exit

18:                                               ; preds = %15
  tail call void @_Py_Dealloc(ptr noundef nonnull %12) #9
  br label %Py_XDECREF.exit

Py_XDECREF.exit:                                  ; preds = %10, %13, %15, %18
  %19 = add nuw nsw i64 %.014, 1
  %exitcond.not = icmp eq i64 %19, %7
  br i1 %exitcond.not, label %._crit_edge, label %10, !llvm.loop !222

._crit_edge:                                      ; preds = %Py_XDECREF.exit, %1
  tail call void @PyObject_GC_Del(ptr noundef nonnull %0) #9
  %20 = getelementptr i8, ptr %.val, i64 168
  %.val12 = load i64, ptr %20, align 8, !tbaa !30
  %21 = and i64 %.val12, 512
  %.not = icmp eq i64 %21, 0
  br i1 %.not, label %Py_DECREF.exit, label %22

22:                                               ; preds = %._crit_edge
  %23 = load i32, ptr %.val, align 8, !tbaa !52
  %.not.i = icmp sgt i32 %23, -1
  br i1 %.not.i, label %24, label %Py_DECREF.exit

24:                                               ; preds = %22
  %25 = add nsw i32 %23, -1
  store i32 %25, ptr %.val, align 8, !tbaa !52
  %26 = icmp eq i32 %25, 0
  br i1 %26, label %27, label %Py_DECREF.exit

27:                                               ; preds = %24
  tail call void @_Py_Dealloc(ptr noundef nonnull %.val) #9
  br label %Py_DECREF.exit

Py_DECREF.exit:                                   ; preds = %27, %24, %22, %._crit_edge
  ret void
}